target datalayout = "e-m:e-p270:32:32-p271:32:32-p272:64:64-i64:64-i128:128-f80:128-n8:16:32:64-S128"
target triple = "x86_64-pc-linux-gnu"

%"class.Assimp::OptimizeMeshesProcess" = type { %"class.Assimp::BaseProcess", ptr, %"class.std::vector", %"class.std::vector.0", i8, i32, i32, %"class.std::vector.0" }
%"class.Assimp::BaseProcess" = type { ptr, ptr, ptr }
%"class.std::vector" = type { %"struct.std::_Vector_base" }
%"struct.std::_Vector_base" = type { %"struct.std::_Vector_base<Assimp::OptimizeMeshesProcess::MeshInfo, std::allocator<Assimp::OptimizeMeshesProcess::MeshInfo>>::_Vector_impl" }
%"struct.std::_Vector_base<Assimp::OptimizeMeshesProcess::MeshInfo, std::allocator<Assimp::OptimizeMeshesProcess::MeshInfo>>::_Vector_impl" = type { %"struct.std::_Vector_base<Assimp::OptimizeMeshesProcess::MeshInfo, std::allocator<Assimp::OptimizeMeshesProcess::MeshInfo>>::_Vector_impl_data" }
%"struct.std::_Vector_base<Assimp::OptimizeMeshesProcess::MeshInfo, std::allocator<Assimp::OptimizeMeshesProcess::MeshInfo>>::_Vector_impl_data" = type { ptr, ptr, ptr }
%"class.std::vector.0" = type { %"struct.std::_Vector_base.1" }
%"struct.std::_Vector_base.1" = type { %"struct.std::_Vector_base<aiMesh *, std::allocator<aiMesh *>>::_Vector_impl" }
%"struct.std::_Vector_base<aiMesh *, std::allocator<aiMesh *>>::_Vector_impl" = type { %"struct.std::_Vector_base<aiMesh *, std::allocator<aiMesh *>>::_Vector_impl_data" }
%"struct.std::_Vector_base<aiMesh *, std::allocator<aiMesh *>>::_Vector_impl_data" = type { ptr, ptr, ptr }

@.str = private unnamed_addr constant [22 x i8] c"PP_SLM_TRIANGLE_LIMIT\00", align 1
@.str.1 = private unnamed_addr constant [20 x i8] c"PP_SLM_VERTEX_LIMIT\00", align 1

; Function Attrs: mustprogress uwtable
define hidden void @_ZN6Assimp21OptimizeMeshesProcess15SetupPropertiesEPKNS_8ImporterE(ptr noundef nonnull align 8 dereferenceable(120) %0, ptr noundef %1) unnamed_addr #2 align 2 {
  %3 = alloca ptr, align 8
  %4 = alloca ptr, align 8
  store ptr %0, ptr %3, align 8
  store ptr %1, ptr %4, align 8
  %5 = load ptr, ptr %3, align 8
  %6 = getelementptr inbounds nuw %"class.Assimp::OptimizeMeshesProcess", ptr %5, i32 0, i32 5
  %7 = load i32, ptr %6, align 4
  %8 = icmp eq i32 %7, -559038737
  br i1 %8, label %9, label %16

9:                                                ; preds = %2
  %10 = load ptr, ptr %4, align 8
  %11 = call noundef i32 @_ZNK6Assimp8Importer18GetPropertyIntegerEPKci(ptr noundef nonnull align 8 dereferenceable(8) %10, ptr noundef @.str, i32 noundef 1000000)
  %12 = getelementptr inbounds nuw %"class.Assimp::OptimizeMeshesProcess", ptr %5, i32 0, i32 6
  store i32 %11, ptr %12, align 8
  %13 = load ptr, ptr %4, align 8
  %14 = call noundef i32 @_ZNK6Assimp8Importer18GetPropertyIntegerEPKci(ptr noundef nonnull align 8 dereferenceable(8) %13, ptr noundef @.str.1, i32 noundef 1000000)
  %15 = getelementptr inbounds nuw %"class.Assimp::OptimizeMeshesProcess", ptr %5, i32 0, i32 5
  store i32 %14, ptr %15, align 4
  br label %16

16:                                               ; preds = %9, %2
  ret void
}