; Function Attrs: mustprogress uwtable
define hidden void @_ZN6Assimp21OptimizeMeshesProcess15SetupPropertiesEPKNS_8ImporterE(ptr noundef nonnull align 8 captures(none) dereferenceable(120) %0, ptr noundef %1) unnamed_addr #3 align 2 {
  %3 = getelementptr inbounds nuw i8, ptr %0, i64 84
  %4 = load i32, ptr %3, align 4
  %5 = icmp eq i32 %4, -559038737
  br i1 %5, label %6, label %10

6:                                                ; preds = %2
  %7 = tail call noundef i32 @_ZNK6Assimp8Importer18GetPropertyIntegerEPKci(ptr noundef nonnull align 8 dereferenceable(8) %1, ptr noundef nonnull @.str, i32 noundef 1000000)
  %8 = getelementptr inbounds nuw i8, ptr %0, i64 88
  store i32 %7, ptr %8, align 8
  %9 = tail call noundef i32 @_ZNK6Assimp8Importer18GetPropertyIntegerEPKci(ptr noundef nonnull align 8 dereferenceable(8) %1, ptr noundef nonnull @.str.1, i32 noundef 1000000)
  store i32 %9, ptr %3, align 4
  br label %10

10:                                               ; preds = %6, %2
  ret void
}